target datalayout = "e-m:e-p270:32:32-p271:32:32-p272:64:64-i64:64-i128:128-f80:128-n8:16:32:64-S128"
target triple = "x86_64-pc-linux-gnu"

%struct.H5FL_blk_gc_list_t = type { i64, ptr }
%struct.H5FL_blk_head_t = type { i8, i32, i32, i64, ptr, ptr }
%struct.H5FL_blk_node_t = type { i64, i32, i32, ptr, ptr, ptr }

@H5FL_init_g = global i8 0, align 1
@H5_H5FL_blk_node_t_reg_free_list = global { i8, [3 x i8], i32, i32, [4 x i8], ptr, i64, ptr } { i8 0, [3 x i8] zeroinitializer, i32 0, i32 0, [4 x i8] zeroinitializer, ptr @.str, i64 40, ptr null }, align 8
@H5_libterm_g = external global i8, align 1
@H5FL_blk_gc_head = internal global %struct.H5FL_blk_gc_list_t zeroinitializer, align 8

; Function Attrs: nounwind uwtable
define internal i32 @H5FL__blk_gc_list(ptr noundef %0) #0 {
  %2 = alloca ptr, align 8
  %3 = alloca ptr, align 8
  %4 = alloca ptr, align 8
  %5 = alloca ptr, align 8
  %6 = alloca ptr, align 8
  store ptr %0, ptr %2, align 8, !tbaa !79
  call void @llvm.lifetime.start.p0(i64 8, ptr %3) #9
  %7 = load i8, ptr @H5FL_init_g, align 1, !tbaa !7, !range !9, !noundef !10
  %8 = trunc i8 %7 to i1
  br i1 %8, label %13, label %9

9:                                                ; preds = %1
  %10 = load i8, ptr @H5_libterm_g, align 1, !tbaa !7, !range !9, !noundef !10
  %11 = trunc i8 %10 to i1
  %12 = xor i1 %11, true
  br label %13

13:                                               ; preds = %9, %1
  %14 = phi i1 [ true, %1 ], [ %12, %9 ]
  %15 = xor i1 %14, true
  %16 = xor i1 %15, true
  %17 = zext i1 %16 to i32
  %18 = sext i32 %17 to i64
  %19 = call i64 @llvm.expect.i64(i64 %18, i64 1)
  %20 = icmp ne i64 %19, 0
  br i1 %20, label %21, label %134

21:                                               ; preds = %13
  %22 = load ptr, ptr %2, align 8, !tbaa !79
  %23 = getelementptr inbounds nuw %struct.H5FL_blk_head_t, ptr %22, i32 0, i32 5
  %24 = load ptr, ptr %23, align 8, !tbaa !97
  store ptr %24, ptr %3, align 8, !tbaa !80
  br label %25

25:                                               ; preds = %129, %21
  %26 = load ptr, ptr %3, align 8, !tbaa !80
  %27 = icmp ne ptr %26, null
  br i1 %27, label %28, label %131

28:                                               ; preds = %25
  call void @llvm.lifetime.start.p0(i64 8, ptr %4) #9
  call void @llvm.lifetime.start.p0(i64 8, ptr %5) #9
  %29 = load ptr, ptr %3, align 8, !tbaa !80
  %30 = getelementptr inbounds nuw %struct.H5FL_blk_node_t, ptr %29, i32 0, i32 3
  %31 = load ptr, ptr %30, align 8, !tbaa !81
  store ptr %31, ptr %5, align 8, !tbaa !90
  br label %32

32:                                               ; preds = %35, %28
  %33 = load ptr, ptr %5, align 8, !tbaa !90
  %34 = icmp ne ptr %33, null
  br i1 %34, label %35, label %40

35:                                               ; preds = %32
  call void @llvm.lifetime.start.p0(i64 8, ptr %6) #9
  %36 = load ptr, ptr %5, align 8, !tbaa !90
  %37 = load ptr, ptr %36, align 8, !tbaa !91
  store ptr %37, ptr %6, align 8, !tbaa !90
  %38 = load ptr, ptr %5, align 8, !tbaa !90
  call void @free(ptr noundef %38) #9
  %39 = load ptr, ptr %6, align 8, !tbaa !90
  store ptr %39, ptr %5, align 8, !tbaa !90
  call void @llvm.lifetime.end.p0(i64 8, ptr %6) #9
  br label %32, !llvm.loop !98

40:                                               ; preds = %32
  %41 = load ptr, ptr %3, align 8, !tbaa !80
  %42 = getelementptr inbounds nuw %struct.H5FL_blk_node_t, ptr %41, i32 0, i32 2
  %43 = load i32, ptr %42, align 4, !tbaa !92
  %44 = load ptr, ptr %3, align 8, !tbaa !80
  %45 = getelementptr inbounds nuw %struct.H5FL_blk_node_t, ptr %44, i32 0, i32 1
  %46 = load i32, ptr %45, align 8, !tbaa !96
  %47 = sub i32 %46, %43
  store i32 %47, ptr %45, align 8, !tbaa !96
  %48 = load ptr, ptr %3, align 8, !tbaa !80
  %49 = getelementptr inbounds nuw %struct.H5FL_blk_node_t, ptr %48, i32 0, i32 2
  %50 = load i32, ptr %49, align 4, !tbaa !92
  %51 = load ptr, ptr %2, align 8, !tbaa !79
  %52 = getelementptr inbounds nuw %struct.H5FL_blk_head_t, ptr %51, i32 0, i32 1
  %53 = load i32, ptr %52, align 4, !tbaa !63
  %54 = sub i32 %53, %50
  store i32 %54, ptr %52, align 4, !tbaa !63
  %55 = load ptr, ptr %3, align 8, !tbaa !80
  %56 = getelementptr inbounds nuw %struct.H5FL_blk_node_t, ptr %55, i32 0, i32 2
  %57 = load i32, ptr %56, align 4, !tbaa !92
  %58 = zext i32 %57 to i64
  %59 = load ptr, ptr %3, align 8, !tbaa !80
  %60 = getelementptr inbounds nuw %struct.H5FL_blk_node_t, ptr %59, i32 0, i32 0
  %61 = load i64, ptr %60, align 8, !tbaa !86
  %62 = mul i64 %58, %61
  %63 = load ptr, ptr %2, align 8, !tbaa !79
  %64 = getelementptr inbounds nuw %struct.H5FL_blk_head_t, ptr %63, i32 0, i32 3
  %65 = load i64, ptr %64, align 8, !tbaa !94
  %66 = sub i64 %65, %62
  store i64 %66, ptr %64, align 8, !tbaa !94
  %67 = load ptr, ptr %3, align 8, !tbaa !80
  %68 = getelementptr inbounds nuw %struct.H5FL_blk_node_t, ptr %67, i32 0, i32 2
  %69 = load i32, ptr %68, align 4, !tbaa !92
  %70 = zext i32 %69 to i64
  %71 = load ptr, ptr %3, align 8, !tbaa !80
  %72 = getelementptr inbounds nuw %struct.H5FL_blk_node_t, ptr %71, i32 0, i32 0
  %73 = load i64, ptr %72, align 8, !tbaa !86
  %74 = mul i64 %70, %73
  %75 = load i64, ptr @H5FL_blk_gc_head, align 8, !tbaa !95
  %76 = sub i64 %75, %74
  store i64 %76, ptr @H5FL_blk_gc_head, align 8, !tbaa !95
  %77 = load ptr, ptr %3, align 8, !tbaa !80
  %78 = getelementptr inbounds nuw %struct.H5FL_blk_node_t, ptr %77, i32 0, i32 3
  store ptr null, ptr %78, align 8, !tbaa !81
  %79 = load ptr, ptr %3, align 8, !tbaa !80
  %80 = getelementptr inbounds nuw %struct.H5FL_blk_node_t, ptr %79, i32 0, i32 2
  store i32 0, ptr %80, align 4, !tbaa !92
  %81 = load ptr, ptr %3, align 8, !tbaa !80
  %82 = getelementptr inbounds nuw %struct.H5FL_blk_node_t, ptr %81, i32 0, i32 4
  %83 = load ptr, ptr %82, align 8, !tbaa !87
  store ptr %83, ptr %4, align 8, !tbaa !80
  %84 = load ptr, ptr %3, align 8, !tbaa !80
  %85 = getelementptr inbounds nuw %struct.H5FL_blk_node_t, ptr %84, i32 0, i32 1
  %86 = load i32, ptr %85, align 8, !tbaa !96
  %87 = icmp eq i32 0, %86
  br i1 %87, label %88, label %129

88:                                               ; preds = %40
  %89 = load ptr, ptr %2, align 8, !tbaa !79
  %90 = getelementptr inbounds nuw %struct.H5FL_blk_head_t, ptr %89, i32 0, i32 5
  %91 = load ptr, ptr %90, align 8, !tbaa !97
  %92 = load ptr, ptr %3, align 8, !tbaa !80
  %93 = icmp eq ptr %91, %92
  br i1 %93, label %94, label %100

94:                                               ; preds = %88
  %95 = load ptr, ptr %3, align 8, !tbaa !80
  %96 = getelementptr inbounds nuw %struct.H5FL_blk_node_t, ptr %95, i32 0, i32 4
  %97 = load ptr, ptr %96, align 8, !tbaa !87
  %98 = load ptr, ptr %2, align 8, !tbaa !79
  %99 = getelementptr inbounds nuw %struct.H5FL_blk_head_t, ptr %98, i32 0, i32 5
  store ptr %97, ptr %99, align 8, !tbaa !97
  br label %100

100:                                              ; preds = %94, %88
  %101 = load ptr, ptr %3, align 8, !tbaa !80
  %102 = getelementptr inbounds nuw %struct.H5FL_blk_node_t, ptr %101, i32 0, i32 5
  %103 = load ptr, ptr %102, align 8, !tbaa !88
  %104 = icmp ne ptr %103, null
  br i1 %104, label %105, label %113

105:                                              ; preds = %100
  %106 = load ptr, ptr %3, align 8, !tbaa !80
  %107 = getelementptr inbounds nuw %struct.H5FL_blk_node_t, ptr %106, i32 0, i32 4
  %108 = load ptr, ptr %107, align 8, !tbaa !87
  %109 = load ptr, ptr %3, align 8, !tbaa !80
  %110 = getelementptr inbounds nuw %struct.H5FL_blk_node_t, ptr %109, i32 0, i32 5
  %111 = load ptr, ptr %110, align 8, !tbaa !88
  %112 = getelementptr inbounds nuw %struct.H5FL_blk_node_t, ptr %111, i32 0, i32 4
  store ptr %108, ptr %112, align 8, !tbaa !87
  br label %113

113:                                              ; preds = %105, %100
  %114 = load ptr, ptr %3, align 8, !tbaa !80
  %115 = getelementptr inbounds nuw %struct.H5FL_blk_node_t, ptr %114, i32 0, i32 4
  %116 = load ptr, ptr %115, align 8, !tbaa !87
  %117 = icmp ne ptr %116, null
  br i1 %117, label %118, label %126

118:                                              ; preds = %113
  %119 = load ptr, ptr %3, align 8, !tbaa !80
  %120 = getelementptr inbounds nuw %struct.H5FL_blk_node_t, ptr %119, i32 0, i32 5
  %121 = load ptr, ptr %120, align 8, !tbaa !88
  %122 = load ptr, ptr %3, align 8, !tbaa !80
  %123 = getelementptr inbounds nuw %struct.H5FL_blk_node_t, ptr %122, i32 0, i32 4
  %124 = load ptr, ptr %123, align 8, !tbaa !87
  %125 = getelementptr inbounds nuw %struct.H5FL_blk_node_t, ptr %124, i32 0, i32 5
  store ptr %121, ptr %125, align 8, !tbaa !88
  br label %126

126:                                              ; preds = %118, %113
  %127 = load ptr, ptr %3, align 8, !tbaa !80
  %128 = call ptr @H5FL_reg_free(ptr noundef @H5_H5FL_blk_node_t_reg_free_list, ptr noundef %127)
  br label %129

129:                                              ; preds = %126, %40
  %130 = load ptr, ptr %4, align 8, !tbaa !80
  store ptr %130, ptr %3, align 8, !tbaa !80
  call void @llvm.lifetime.end.p0(i64 8, ptr %5) #9
  call void @llvm.lifetime.end.p0(i64 8, ptr %4) #9
  br label %25, !llvm.loop !99

131:                                              ; preds = %25
  %132 = load ptr, ptr %2, align 8, !tbaa !79
  %133 = getelementptr inbounds nuw %struct.H5FL_blk_head_t, ptr %132, i32 0, i32 2
  store i32 0, ptr %133, align 8, !tbaa !93
  br label %134

134:                                              ; preds = %131, %13
  call void @llvm.lifetime.end.p0(i64 8, ptr %3) #9
  ret i32 0
}