; Function Attrs: nounwind uwtable
define internal fastcc void @H5FL__blk_gc_list(ptr noundef captures(none) %0) unnamed_addr #0 {
  %2 = load i8, ptr @H5FL_init_g, align 1, !tbaa !3, !range !7, !noundef !8
  %3 = trunc nuw i8 %2 to i1
  %4 = load i8, ptr @H5_libterm_g, align 1, !range !7
  %5 = trunc nuw i8 %4 to i1
  %6 = xor i1 %5, true
  %7 = select i1 %3, i1 true, i1 %6
  br i1 %7, label %8, label %51, !prof !15

8:                                                ; preds = %1
  %9 = getelementptr inbounds nuw i8, ptr %0, i64 32
  %10 = load ptr, ptr %9, align 8, !tbaa !102
  %.not41 = icmp eq ptr %10, null
  br i1 %.not41, label %._crit_edge45, label %.lr.ph44

.lr.ph44:                                         ; preds = %8
  %11 = getelementptr inbounds nuw i8, ptr %0, i64 4
  %12 = getelementptr inbounds nuw i8, ptr %0, i64 16
  br label %13

13:                                               ; preds = %.lr.ph44, %49
  %.042 = phi ptr [ %10, %.lr.ph44 ], [ %32, %49 ]
  %14 = getelementptr inbounds nuw i8, ptr %.042, i64 16
  %15 = load ptr, ptr %14, align 8, !tbaa !95
  %.not3639 = icmp eq ptr %15, null
  br i1 %.not3639, label %._crit_edge, label %.lr.ph

.lr.ph:                                           ; preds = %13, %.lr.ph
  %.03340 = phi ptr [ %16, %.lr.ph ], [ %15, %13 ]
  %16 = load ptr, ptr %.03340, align 8, !tbaa !96
  tail call void @free(ptr noundef nonnull %.03340) #10
  %.not36 = icmp eq ptr %16, null
  br i1 %.not36, label %._crit_edge, label %.lr.ph, !llvm.loop !103

._crit_edge:                                      ; preds = %.lr.ph, %13
  %17 = getelementptr inbounds nuw i8, ptr %.042, i64 12
  %18 = load i32, ptr %17, align 4, !tbaa !97
  %19 = getelementptr inbounds nuw i8, ptr %.042, i64 8
  %20 = load i32, ptr %19, align 8, !tbaa !101
  %21 = sub i32 %20, %18
  store i32 %21, ptr %19, align 8, !tbaa !101
  %22 = load i32, ptr %11, align 4, !tbaa !58
  %23 = sub i32 %22, %18
  store i32 %23, ptr %11, align 4, !tbaa !58
  %24 = zext i32 %18 to i64
  %25 = load i64, ptr %.042, align 8, !tbaa !89
  %26 = mul i64 %25, %24
  %27 = load i64, ptr %12, align 8, !tbaa !99
  %28 = sub i64 %27, %26
  store i64 %28, ptr %12, align 8, !tbaa !99
  %29 = load i64, ptr @H5FL_blk_gc_head.0, align 8, !tbaa !100
  %30 = sub i64 %29, %26
  store i64 %30, ptr @H5FL_blk_gc_head.0, align 8, !tbaa !100
  store ptr null, ptr %14, align 8, !tbaa !95
  store i32 0, ptr %17, align 4, !tbaa !97
  %31 = getelementptr inbounds nuw i8, ptr %.042, i64 24
  %32 = load ptr, ptr %31, align 8, !tbaa !92
  %33 = icmp eq i32 %20, %18
  br i1 %33, label %34, label %49

34:                                               ; preds = %._crit_edge
  %35 = load ptr, ptr %9, align 8, !tbaa !102
  %36 = icmp eq ptr %35, %.042
  br i1 %36, label %37, label %38

37:                                               ; preds = %34
  store ptr %32, ptr %9, align 8, !tbaa !102
  br label %38

38:                                               ; preds = %37, %34
  %39 = getelementptr inbounds nuw i8, ptr %.042, i64 32
  %40 = load ptr, ptr %39, align 8, !tbaa !94
  %.not37 = icmp eq ptr %40, null
  br i1 %.not37, label %43, label %41

41:                                               ; preds = %38
  %42 = getelementptr inbounds nuw i8, ptr %40, i64 24
  store ptr %32, ptr %42, align 8, !tbaa !92
  %.pre = load ptr, ptr %31, align 8, !tbaa !92
  br label %43

43:                                               ; preds = %41, %38
  %44 = phi ptr [ %.pre, %41 ], [ %32, %38 ]
  %.not38 = icmp eq ptr %44, null
  br i1 %.not38, label %47, label %45

45:                                               ; preds = %43
  %46 = getelementptr inbounds nuw i8, ptr %44, i64 32
  store ptr %40, ptr %46, align 8, !tbaa !94
  br label %47

47:                                               ; preds = %45, %43
  %48 = tail call ptr @H5FL_reg_free(ptr noundef nonnull @H5_H5FL_blk_node_t_reg_free_list, ptr noundef nonnull %.042)
  br label %49

49:                                               ; preds = %47, %._crit_edge
  %.not = icmp eq ptr %32, null
  br i1 %.not, label %._crit_edge45, label %13, !llvm.loop !104

._crit_edge45:                                    ; preds = %49, %8
  %50 = getelementptr inbounds nuw i8, ptr %0, i64 8
  store i32 0, ptr %50, align 8, !tbaa !98
  br label %51

51:                                               ; preds = %._crit_edge45, %1
  ret void
}